target datalayout = "e-m:e-p270:32:32-p271:32:32-p272:64:64-i64:64-i128:128-f80:128-n8:16:32:64-S128"
target triple = "x86_64-pc-linux-gnu"

; Function Attrs: mustprogress nounwind uwtable
define noundef i32 @_ZN7glslang9HlslOpMap10assignmentENS_15EHlslTokenClassE(i32 noundef %0) #0 align 2 {
  %2 = alloca i32, align 4
  %3 = alloca i32, align 4
  store i32 %0, ptr %3, align 4
  %4 = load i32, ptr %3, align 4
  switch i32 %4, label %16 [
    i32 344, label %5
    i32 345, label %6
    i32 346, label %7
    i32 347, label %8
    i32 348, label %9
    i32 349, label %10
    i32 350, label %11
    i32 351, label %12
    i32 352, label %13
    i32 353, label %14
    i32 354, label %15
  ]

5:                                                ; preds = %1
  store i32 585, ptr %2, align 4
  br label %17

6:                                                ; preds = %1
  store i32 588, ptr %2, align 4
  br label %17

7:                                                ; preds = %1
  store i32 593, ptr %2, align 4
  br label %17

8:                                                ; preds = %1
  store i32 586, ptr %2, align 4
  br label %17

9:                                                ; preds = %1
  store i32 594, ptr %2, align 4
  br label %17

10:                                               ; preds = %1
  store i32 598, ptr %2, align 4
  br label %17

11:                                               ; preds = %1
  store i32 599, ptr %2, align 4
  br label %17

12:                                               ; preds = %1
  store i32 595, ptr %2, align 4
  br label %17

13:                                               ; preds = %1
  store i32 597, ptr %2, align 4
  br label %17

14:                                               ; preds = %1
  store i32 596, ptr %2, align 4
  br label %17

15:                                               ; preds = %1
  store i32 587, ptr %2, align 4
  br label %17

16:                                               ; preds = %1
  store i32 0, ptr %2, align 4
  br label %17

17:                                               ; preds = %16, %15, %14, %13, %12, %11, %10, %9, %8, %7, %6, %5
  %18 = load i32, ptr %2, align 4
  ret i32 %18
}

; Function Attrs: mustprogress nounwind uwtable
define noundef i32 @_ZN7glslang9HlslOpMap6binaryENS_15EHlslTokenClassE(i32 noundef %0) #0 align 2 {
  %2 = alloca i32, align 4
  %3 = alloca i32, align 4
  store i32 %0, ptr %3, align 4
  %4 = load i32, ptr %3, align 4
  switch i32 %4, label %24 [
    i32 369, label %5
    i32 367, label %6
    i32 370, label %7
    i32 371, label %8
    i32 372, label %9
    i32 334, label %10
    i32 333, label %11
    i32 377, label %12
    i32 375, label %13
    i32 376, label %14
    i32 339, label %15
    i32 340, label %16
    i32 373, label %17
    i32 374, label %18
    i32 337, label %19
    i32 338, label %20
    i32 342, label %21
    i32 343, label %22
    i32 341, label %23
  ]

5:                                                ; preds = %1
  store i32 156, ptr %2, align 4
  br label %25

6:                                                ; preds = %1
  store i32 157, ptr %2, align 4
  br label %25

7:                                                ; preds = %1
  store i32 158, ptr %2, align 4
  br label %25

8:                                                ; preds = %1
  store i32 159, ptr %2, align 4
  br label %25

9:                                                ; preds = %1
  store i32 160, ptr %2, align 4
  br label %25

10:                                               ; preds = %1
  store i32 161, ptr %2, align 4
  br label %25

11:                                               ; preds = %1
  store i32 162, ptr %2, align 4
  br label %25

12:                                               ; preds = %1
  store i32 163, ptr %2, align 4
  br label %25

13:                                               ; preds = %1
  store i32 164, ptr %2, align 4
  br label %25

14:                                               ; preds = %1
  store i32 165, ptr %2, align 4
  br label %25

15:                                               ; preds = %1
  store i32 166, ptr %2, align 4
  br label %25

16:                                               ; preds = %1
  store i32 167, ptr %2, align 4
  br label %25

17:                                               ; preds = %1
  store i32 170, ptr %2, align 4
  br label %25

18:                                               ; preds = %1
  store i32 171, ptr %2, align 4
  br label %25

19:                                               ; preds = %1
  store i32 172, ptr %2, align 4
  br label %25

20:                                               ; preds = %1
  store i32 173, ptr %2, align 4
  br label %25

21:                                               ; preds = %1
  store i32 179, ptr %2, align 4
  br label %25

22:                                               ; preds = %1
  store i32 180, ptr %2, align 4
  br label %25

23:                                               ; preds = %1
  store i32 181, ptr %2, align 4
  br label %25

24:                                               ; preds = %1
  store i32 0, ptr %2, align 4
  br label %25

25:                                               ; preds = %24, %23, %22, %21, %20, %19, %18, %17, %16, %15, %14, %13, %12, %11, %10, %9, %8, %7, %6, %5
  %26 = load i32, ptr %2, align 4
  ret i32 %26
}

; Function Attrs: mustprogress nounwind uwtable
define noundef i32 @_ZN7glslang9HlslOpMap8preUnaryENS_15EHlslTokenClassE(i32 noundef %0) #0 align 2 {
  %2 = alloca i32, align 4
  %3 = alloca i32, align 4
  store i32 %0, ptr %3, align 4
  %4 = load i32, ptr %3, align 4
  switch i32 %4, label %11 [
    i32 369, label %5
    i32 367, label %6
    i32 366, label %7
    i32 368, label %8
    i32 335, label %9
    i32 336, label %10
  ]

5:                                                ; preds = %1
  store i32 156, ptr %2, align 4
  br label %12

6:                                                ; preds = %1
  store i32 8, ptr %2, align 4
  br label %12

7:                                                ; preds = %1
  store i32 9, ptr %2, align 4
  br label %12

8:                                                ; preds = %1
  store i32 11, ptr %2, align 4
  br label %12

9:                                                ; preds = %1
  store i32 14, ptr %2, align 4
  br label %12

10:                                               ; preds = %1
  store i32 15, ptr %2, align 4
  br label %12

11:                                               ; preds = %1
  store i32 0, ptr %2, align 4
  br label %12

12:                                               ; preds = %11, %10, %9, %8, %7, %6, %5
  %13 = load i32, ptr %2, align 4
  ret i32 %13
}

; Function Attrs: mustprogress nounwind uwtable
define noundef i32 @_ZN7glslang9HlslOpMap9postUnaryENS_15EHlslTokenClassE(i32 noundef %0) #0 align 2 {
  %2 = alloca i32, align 4
  %3 = alloca i32, align 4
  store i32 %0, ptr %3, align 4
  %4 = load i32, ptr %3, align 4
  switch i32 %4, label %10 [
    i32 361, label %5
    i32 357, label %6
    i32 335, label %7
    i32 336, label %8
    i32 364, label %9
  ]

5:                                                ; preds = %1
  store i32 184, ptr %2, align 4
  br label %11

6:                                                ; preds = %1
  store i32 183, ptr %2, align 4
  br label %11

7:                                                ; preds = %1
  store i32 12, ptr %2, align 4
  br label %11

8:                                                ; preds = %1
  store i32 13, ptr %2, align 4
  br label %11

9:                                                ; preds = %1
  store i32 187, ptr %2, align 4
  br label %11

10:                                               ; preds = %1
  store i32 0, ptr %2, align 4
  br label %11

11:                                               ; preds = %10, %9, %8, %7, %6, %5
  %12 = load i32, ptr %2, align 4
  ret i32 %12
}

; Function Attrs: mustprogress nounwind uwtable
define noundef i32 @_ZN7glslang9HlslOpMap15precedenceLevelENS_9TOperatorE(i32 noundef %0) #0 align 2 {
  %2 = alloca i32, align 4
  %3 = alloca i32, align 4
  store i32 %0, ptr %3, align 4
  %4 = load i32, ptr %3, align 4
  switch i32 %4, label %16 [
    i32 179, label %5
    i32 180, label %6
    i32 181, label %7
    i32 164, label %8
    i32 165, label %9
    i32 163, label %10
    i32 166, label %11
    i32 167, label %11
    i32 170, label %12
    i32 171, label %12
    i32 172, label %12
    i32 173, label %12
    i32 161, label %13
    i32 162, label %13
    i32 156, label %14
    i32 157, label %14
    i32 158, label %15
    i32 159, label %15
    i32 160, label %15
  ]

5:                                                ; preds = %1
  store i32 1, ptr %2, align 4
  br label %17

6:                                                ; preds = %1
  store i32 2, ptr %2, align 4
  br label %17

7:                                                ; preds = %1
  store i32 3, ptr %2, align 4
  br label %17

8:                                                ; preds = %1
  store i32 4, ptr %2, align 4
  br label %17

9:                                                ; preds = %1
  store i32 5, ptr %2, align 4
  br label %17

10:                                               ; preds = %1
  store i32 6, ptr %2, align 4
  br label %17

11:                                               ; preds = %1, %1
  store i32 7, ptr %2, align 4
  br label %17

12:                                               ; preds = %1, %1, %1, %1
  store i32 8, ptr %2, align 4
  br label %17

13:                                               ; preds = %1, %1
  store i32 9, ptr %2, align 4
  br label %17

14:                                               ; preds = %1, %1
  store i32 10, ptr %2, align 4
  br label %17

15:                                               ; preds = %1, %1, %1
  store i32 11, ptr %2, align 4
  br label %17

16:                                               ; preds = %1
  store i32 0, ptr %2, align 4
  br label %17

17:                                               ; preds = %16, %15, %14, %13, %12, %11, %10, %9, %8, %7, %6, %5
  %18 = load i32, ptr %2, align 4
  ret i32 %18
}


!llvm.module.flags = !{!0, !1, !2, !3}

!0 = !{i32 1, !"wchar_size", i32 4}
!1 = !{i32 8, !"PIC Level", i32 2}
!2 = !{i32 7, !"uwtable", i32 2}
!3 = !{i32 7, !"frame-pointer", i32 2}
